; Function Attrs: mustprogress nofree norecurse nosync nounwind willreturn memory(argmem: read) uwtable
define hidden noundef zeroext i1 @_ZNK2lp10lar_solver11is_feasibleEv(ptr noundef nonnull readonly align 8 captures(none) dereferenceable(2128) %0) local_unnamed_addr #10 align 2 {
  %2 = getelementptr inbounds nuw i8, ptr %0, i64 448
  %3 = load i32, ptr %2, align 8, !tbaa !100
  %4 = icmp ult i32 %3, 12
  %switch.cast = trunc i32 %3 to i12
  %switch.downshift = lshr i12 -1016, %switch.cast
  %switch.masked = trunc i12 %switch.downshift to i1
  %.0 = select i1 %4, i1 %switch.masked, i1 false
  ret i1 %.0
}